target datalayout = "e-m:e-p270:32:32-p271:32:32-p272:64:64-i64:64-i128:128-f80:128-n8:16:32:64-S128"
target triple = "x86_64-pc-linux-gnu"

%struct.ftp_parselist_data = type { i32, %union.anon, i32, ptr, i32, i64, %struct.anon.1 }
%union.anon = type { %struct.anon }
%struct.anon = type { i32, %union.pl_unix_substate }
%union.pl_unix_substate = type { i32 }
%struct.anon.1 = type { i64, i64, i64, i64, i64, i64 }

@Curl_cfree = external global ptr, align 8

; Function Attrs: nounwind uwtable
define dso_local void @Curl_ftp_parselist_data_free(ptr noundef %0) #0 {
  %2 = alloca ptr, align 8
  %3 = alloca ptr, align 8
  store ptr %0, ptr %2, align 8, !tbaa !23
  call void @llvm.lifetime.start.p0(i64 8, ptr %3) #5
  %4 = load ptr, ptr %2, align 8, !tbaa !23
  %5 = load ptr, ptr %4, align 8, !tbaa !25
  store ptr %5, ptr %3, align 8, !tbaa !25
  %6 = load ptr, ptr %3, align 8, !tbaa !25
  %7 = icmp ne ptr %6, null
  br i1 %7, label %8, label %12

8:                                                ; preds = %1
  %9 = load ptr, ptr %3, align 8, !tbaa !25
  %10 = getelementptr inbounds nuw %struct.ftp_parselist_data, ptr %9, i32 0, i32 3
  %11 = load ptr, ptr %10, align 8, !tbaa !27
  call void @Curl_fileinfo_cleanup(ptr noundef %11)
  br label %12

12:                                               ; preds = %8, %1
  %13 = load ptr, ptr @Curl_cfree, align 8, !tbaa !16
  %14 = load ptr, ptr %3, align 8, !tbaa !25
  call void %13(ptr noundef %14)
  %15 = load ptr, ptr %2, align 8, !tbaa !23
  store ptr null, ptr %15, align 8, !tbaa !25
  call void @llvm.lifetime.end.p0(i64 8, ptr %3) #5
  ret void
}